target datalayout = "e-m:e-p270:32:32-p271:32:32-p272:64:64-i64:64-i128:128-f80:128-n8:16:32:64-S128"
target triple = "x86_64-pc-linux-gnu"

%class.XStatValue = type { ptr, ptr, i32, i32 }
%class.LogTargetHandle = type { i32, ptr }
%class.XStatSamplerHistory = type { %class.XStatSamplerHistoryInterval, %class.XStatSamplerHistoryInterval.0, %class.XStatSamplerHistoryInterval.0, %struct.XStatSamplerData }
%class.XStatSamplerHistoryInterval = type { i64, [10 x %struct.XStatSamplerData], %struct.XStatSamplerData, %struct.XStatSamplerData }
%class.XStatSamplerHistoryInterval.0 = type { i64, [60 x %struct.XStatSamplerData], %struct.XStatSamplerData, %struct.XStatSamplerData }
%struct.XStatSamplerData = type { i64, i64, i64 }
%class.XStatSampler = type { %class.XStatIterableValue, ptr }
%class.XStatIterableValue = type { %class.XStatValue, ptr }

@.str.29 = private unnamed_addr constant [154 x i8] c"=== Garbage Collection Statistics =======================================================================================================================\00", align 1
@.str.30 = private unnamed_addr constant [135 x i8] c"                                                             Last 10s              Last 10m              Last 10h                Total\00", align 1
@.str.31 = private unnamed_addr constant [137 x i8] c"                                                             Avg / Max             Avg / Max             Avg / Max             Avg / Max\00", align 1
@.str.32 = private unnamed_addr constant [154 x i8] c"=========================================================================================================================================================\00", align 1
@_ZN18XStatIterableValueI12XStatSamplerE6_firstE = linkonce_odr hidden global ptr null, comdat, align 8

; Function Attrs: mustprogress nounwind uwtable
define linkonce_odr hidden noundef ptr @_ZNK18XStatIterableValueI12XStatSamplerE4nextEv(ptr noundef nonnull align 8 dereferenceable(32) %0) #1 comdat align 2 {
  %2 = alloca ptr, align 8
  store ptr %0, ptr %2, align 8
  %3 = load ptr, ptr %2, align 8
  %4 = getelementptr inbounds %class.XStatIterableValue, ptr %3, i32 0, i32 1
  %5 = load ptr, ptr %4, align 8
  ret ptr %5
}

; Function Attrs: mustprogress nounwind uwtable
define hidden noundef ptr @_ZNK12XStatSampler7printerEv(ptr noundef nonnull align 8 dereferenceable(40) %0) #1 align 2 {
  %2 = alloca ptr, align 8
  store ptr %0, ptr %2, align 8
  %3 = load ptr, ptr %2, align 8
  %4 = getelementptr inbounds %class.XStatSampler, ptr %3, i32 0, i32 1
  %5 = load ptr, ptr %4, align 8
  ret ptr %5
}

; Function Attrs: mustprogress nounwind uwtable
define hidden noundef i32 @_ZNK10XStatValue2idEv(ptr noundef nonnull align 8 dereferenceable(24) %0) #1 align 2 {
  %2 = alloca ptr, align 8
  store ptr %0, ptr %2, align 8
  %3 = load ptr, ptr %2, align 8
  %4 = getelementptr inbounds %class.XStatValue, ptr %3, i32 0, i32 2
  %5 = load i32, ptr %4, align 8
  ret i32 %5
}

; Function Attrs: mustprogress nounwind uwtable
define linkonce_odr hidden noundef ptr @_ZN18XStatIterableValueI12XStatSamplerE5firstEv() #1 comdat align 2 {
  %1 = load ptr, ptr @_ZN18XStatIterableValueI12XStatSamplerE6_firstE, align 8
  ret ptr %1
}

; Function Attrs: mustprogress nounwind uwtable
define hidden void @_ZNK5XStat5printE15LogTargetHandlePK19XStatSamplerHistory(ptr noundef nonnull align 8 dereferenceable(1056) %0, i32 %1, ptr %2, ptr noundef %3) #1 align 2 {
  %5 = alloca %class.LogTargetHandle, align 8
  %6 = alloca ptr, align 8
  %7 = alloca ptr, align 8
  %8 = alloca ptr, align 8
  %9 = alloca ptr, align 8
  %10 = alloca ptr, align 8
  %11 = alloca %class.LogTargetHandle, align 8
  %12 = getelementptr inbounds { i32, ptr }, ptr %5, i32 0, i32 0
  store i32 %1, ptr %12, align 8
  %13 = getelementptr inbounds { i32, ptr }, ptr %5, i32 0, i32 1
  store ptr %2, ptr %13, align 8
  store ptr %0, ptr %6, align 8
  store ptr %3, ptr %7, align 8
  call void (ptr, ptr, ...) @_ZN15LogTargetHandle5printEPKcz(ptr noundef nonnull align 8 dereferenceable(16) %5, ptr noundef @.str.29)
  call void (ptr, ptr, ...) @_ZN15LogTargetHandle5printEPKcz(ptr noundef nonnull align 8 dereferenceable(16) %5, ptr noundef @.str.30)
  call void (ptr, ptr, ...) @_ZN15LogTargetHandle5printEPKcz(ptr noundef nonnull align 8 dereferenceable(16) %5, ptr noundef @.str.31)
  %14 = call noundef ptr @_ZN18XStatIterableValueI12XStatSamplerE5firstEv()
  store ptr %14, ptr %8, align 8
  br label %15

15:                                               ; preds = %33, %4
  %16 = load ptr, ptr %8, align 8
  %17 = icmp ne ptr %16, null
  br i1 %17, label %18, label %36

18:                                               ; preds = %15
  %19 = load ptr, ptr %7, align 8
  %20 = load ptr, ptr %8, align 8
  %21 = call noundef i32 @_ZNK10XStatValue2idEv(ptr noundef nonnull align 8 dereferenceable(24) %20)
  %22 = zext i32 %21 to i64
  %23 = getelementptr inbounds %class.XStatSamplerHistory, ptr %19, i64 %22
  store ptr %23, ptr %9, align 8
  %24 = load ptr, ptr %8, align 8
  %25 = call noundef ptr @_ZNK12XStatSampler7printerEv(ptr noundef nonnull align 8 dereferenceable(40) %24)
  store ptr %25, ptr %10, align 8
  %26 = load ptr, ptr %10, align 8
  call void @llvm.memcpy.p0.p0.i64(ptr align 8 %11, ptr align 8 %5, i64 16, i1 false)
  %27 = load ptr, ptr %8, align 8
  %28 = load ptr, ptr %9, align 8
  %29 = getelementptr inbounds { i32, ptr }, ptr %11, i32 0, i32 0
  %30 = load i32, ptr %29, align 8
  %31 = getelementptr inbounds { i32, ptr }, ptr %11, i32 0, i32 1
  %32 = load ptr, ptr %31, align 8
  call void %26(i32 %30, ptr %32, ptr noundef nonnull align 8 dereferenceable(40) %27, ptr noundef nonnull align 8 dereferenceable(3312) %28)
  br label %33

33:                                               ; preds = %18
  %34 = load ptr, ptr %8, align 8
  %35 = call noundef ptr @_ZNK18XStatIterableValueI12XStatSamplerE4nextEv(ptr noundef nonnull align 8 dereferenceable(32) %34)
  store ptr %35, ptr %8, align 8
  br label %15, !llvm.loop !15

36:                                               ; preds = %15
  call void (ptr, ptr, ...) @_ZN15LogTargetHandle5printEPKcz(ptr noundef nonnull align 8 dereferenceable(16) %5, ptr noundef @.str.32)
  ret void
}