; Function Attrs: mustprogress nounwind uwtable
define hidden void @_ZNK5XStat5printE15LogTargetHandlePK19XStatSamplerHistory(ptr nocapture noundef nonnull readnone align 8 dereferenceable(1056) %0, i32 %1, ptr %2, ptr noundef %3) local_unnamed_addr #0 align 2 {
  %5 = alloca %class.LogTargetHandle, align 8
  store i32 %1, ptr %5, align 8
  %6 = getelementptr inbounds i8, ptr %5, i64 8
  store ptr %2, ptr %6, align 8
  call void (ptr, ptr, ...) @_ZN15LogTargetHandle5printEPKcz(ptr noundef nonnull align 8 dereferenceable(16) %5, ptr noundef nonnull @.str.29)
  call void (ptr, ptr, ...) @_ZN15LogTargetHandle5printEPKcz(ptr noundef nonnull align 8 dereferenceable(16) %5, ptr noundef nonnull @.str.30)
  call void (ptr, ptr, ...) @_ZN15LogTargetHandle5printEPKcz(ptr noundef nonnull align 8 dereferenceable(16) %5, ptr noundef nonnull @.str.31)
  %.09 = load ptr, ptr @_ZN18XStatIterableValueI12XStatSamplerE6_firstE, align 8
  %.not10 = icmp eq ptr %.09, null
  br i1 %.not10, label %._crit_edge, label %.lr.ph

.lr.ph:                                           ; preds = %4, %.lr.ph
  %.011 = phi ptr [ %.0, %.lr.ph ], [ %.09, %4 ]
  %7 = getelementptr inbounds i8, ptr %.011, i64 16
  %8 = load i32, ptr %7, align 8
  %9 = zext i32 %8 to i64
  %10 = getelementptr inbounds %class.XStatSamplerHistory, ptr %3, i64 %9
  %11 = getelementptr inbounds i8, ptr %.011, i64 32
  %12 = load ptr, ptr %11, align 8
  %.sroa.0.0.copyload = load i32, ptr %5, align 8
  %.sroa.21.0.copyload = load ptr, ptr %6, align 8
  call void %12(i32 %.sroa.0.0.copyload, ptr %.sroa.21.0.copyload, ptr noundef nonnull align 8 dereferenceable(40) %.011, ptr noundef nonnull align 8 dereferenceable(3312) %10) #22
  %13 = getelementptr inbounds i8, ptr %.011, i64 24
  %.0 = load ptr, ptr %13, align 8
  %.not = icmp eq ptr %.0, null
  br i1 %.not, label %._crit_edge, label %.lr.ph, !llvm.loop !50

._crit_edge:                                      ; preds = %.lr.ph, %4
  call void (ptr, ptr, ...) @_ZN15LogTargetHandle5printEPKcz(ptr noundef nonnull align 8 dereferenceable(16) %5, ptr noundef nonnull @.str.32)
  ret void
}